; Function Attrs: mustprogress nounwind uwtable
define dso_local void @_ZN21cmParseJacocoCoverageC2ER31cmCTestCoverageHandlerContainerP7cmCTest(ptr noundef nonnull align 8 dereferenceable(192) %0, ptr noundef nonnull align 8 dereferenceable(129) %1, ptr noundef %2) unnamed_addr #3 align 2 personality ptr @__gxx_personality_v0 {
  tail call void @_ZNSt7__cxx1112basic_stringIcSt11char_traitsIcESaIcEEC1Ev(ptr noundef nonnull align 8 dereferenceable(32) %0) #17
  %4 = getelementptr inbounds i8, ptr %0, i64 32
  tail call void @_ZNSt7__cxx1112basic_stringIcSt11char_traitsIcESaIcEEC1Ev(ptr noundef nonnull align 8 dereferenceable(32) %4) #17
  %5 = getelementptr inbounds i8, ptr %0, i64 64
  tail call void @_ZNSt7__cxx1112basic_stringIcSt11char_traitsIcESaIcEEC1Ev(ptr noundef nonnull align 8 dereferenceable(32) %5) #17
  %6 = getelementptr inbounds i8, ptr %0, i64 96
  tail call void @_ZNSt7__cxx1112basic_stringIcSt11char_traitsIcESaIcEEC1Ev(ptr noundef nonnull align 8 dereferenceable(32) %6) #17
  %7 = getelementptr inbounds i8, ptr %0, i64 136
  store i32 0, ptr %7, align 8
  %8 = getelementptr inbounds i8, ptr %0, i64 144
  store ptr null, ptr %8, align 8
  %9 = getelementptr inbounds i8, ptr %0, i64 152
  store ptr %7, ptr %9, align 8
  %10 = getelementptr inbounds i8, ptr %0, i64 160
  store ptr %7, ptr %10, align 8
  %11 = getelementptr inbounds i8, ptr %0, i64 168
  store i64 0, ptr %11, align 8
  %12 = getelementptr inbounds i8, ptr %0, i64 176
  store ptr %1, ptr %12, align 8
  %13 = getelementptr inbounds i8, ptr %0, i64 184
  store ptr %2, ptr %13, align 8
  ret void
}